; Listing generated by Microsoft (R) Optimizing Compiler Version 19.24.28319.0 

	TITLE	C:\Users\Ce\Documents\Programming\C++\ising\ising\pch.cpp
	.686P
	.XMM
	include listing.inc
	.model	flat

INCLUDELIB MSVCRTD
INCLUDELIB OLDNAMES

PUBLIC	___@@_PchSym_@00@UfhvihUxvUwlxfnvmghUkiltiznnrmtUxQQUrhrmtUyrmRrmgUwvyftRdrmDCUkxsOlyq@4B2008FD98C1DD4
;	COMDAT ___@@_PchSym_@00@UfhvihUxvUwlxfnvmghUkiltiznnrmtUxQQUrhrmtUyrmRrmgUwvyftRdrmDCUkxsOlyq@4B2008FD98C1DD4
_BSS	SEGMENT
___@@_PchSym_@00@UfhvihUxvUwlxfnvmghUkiltiznnrmtUxQQUrhrmtUyrmRrmgUwvyftRdrmDCUkxsOlyq@4B2008FD98C1DD4 DD 01H DUP (?)
_BSS	ENDS
msvcjmc	SEGMENT
__FFD4DC1E_ising@pch DB 01H
__C8B32F4A_vcruntime_new@h DB 01H
__09340588_corecrt_math@h DB 01H
__24E9E95F_stdlib@h DB 01H
__453FB433_cstdlib DB 01H
__DA2BC61C_cmath DB 01H
__F66CEB67_corecrt_stdio_config@h DB 01H
__101834BA_corecrt_wstdio@h DB 01H
__AD6A91B7_stdio@h DB 01H
__E0F46E9E_cstddef DB 01H
__7FE84B06_type_traits DB 01H
__B0C4CEA9_malloc@h DB 01H
__30419EF2_vcruntime_exception@h DB 01H
__3C6B62B4_exception DB 01H
__367CC694_corecrt_memcpy_s@h DB 01H
__35D7DDB3_corecrt_memory@h DB 01H
__DC9673E3_corecrt_wstring@h DB 01H
__A29A7DFB_string@h DB 01H
__5467428D_corecrt_wconio@h DB 01H
__4442441F_corecrt_wio@h DB 01H
__45F4AF76_corecrt_wtime@h DB 01H
__186FF47F_stat@h DB 01H
__534C724A_wchar@h DB 01H
__615E91DC_limits DB 01H
__3045FE1B_xutility DB 01H
__18A7527B_xmemory DB 01H
__7C08DF5D_tuple DB 01H
__CD4630D8_xpolymorphic_allocator@h DB 01H
__6C74D4E7_xstring DB 01H
__B52558E9_stdexcept DB 01H
__01459C01_xcall_once@h DB 01H
__BE188E21_system_error DB 01H
__E06EB45C_vcruntime_typeinfo@h DB 01H
__409A0D02_typeinfo DB 01H
__DDF09D52_memory DB 01H
__F1B5CA5D_xfacet DB 01H
__7242C389_ctype@h DB 01H
__5F13EECA_xlocinfo DB 01H
__B34AA0D6_xlocale DB 01H
__66F699D9_xiosbase DB 01H
__2DCDC6C1_xlocnum DB 01H
__B600D24D_ios DB 01H
__35C23FC1_fstream DB 01H
__8AA3BE86_time@h DB 01H
__D6A72060_algorithm DB 01H
__0A6BCD1E_atomic DB 01H
__B6985FB2_ratio DB 01H
__05B39756_chrono DB 01H
__A81AF4D1_xthreads@h DB 01H
__06BDE5E4_thread DB 01H
__A43555E2_mutex DB 01H
__1D10A0EC_xbit_ops@h DB 01H
__723231B8_utility DB 01H
__41023BE3_execution DB 01H
__06AFD3F9_xlocmon DB 01H
__FB0E47D8_xloctime DB 01H
__9F4657AA_xlocmes DB 01H
__80F986C3_xfilesystem_abi@h DB 01H
__6CE0045A_list DB 01H
__C4B86A31_filesystem DB 01H
__21A673B2_random DB 01H
__2CF3E13C_vector DB 01H
__761D6FFF_locale DB 01H
__C38A4F28_istream DB 01H
__A05A7A12_ostream DB 01H
__B785E055_streambuf DB 01H
__ADB7445A_iosfwd DB 01H
__852DA6AA_xstddef DB 01H
__3667EE62_xatomic@h DB 01H
__850D9C4F_pch@cpp DB 01H
msvcjmc	ENDS
PUBLIC	?__empty_global_delete@@YAXPAX@Z		; __empty_global_delete
PUBLIC	?__empty_global_delete@@YAXPAXI@Z		; __empty_global_delete
PUBLIC	?__empty_global_delete@@YAXPAXW4align_val_t@std@@@Z ; __empty_global_delete
PUBLIC	?__empty_global_delete@@YAXPAXIW4align_val_t@std@@@Z ; __empty_global_delete
PUBLIC	_wmemcpy
PUBLIC	??$_Maklocstr@_W@std@@YAPA_WPBDPA_WABU_Cvtvec@@@Z ; std::_Maklocstr<wchar_t>
PUBLIC	?_Maklocwcs@std@@YAPA_WPB_W@Z			; std::_Maklocwcs
PUBLIC	??$_Maklocstr@D@std@@YAPADPBDPADABU_Cvtvec@@@Z	; std::_Maklocstr<char>
PUBLIC	??$_Getvals@_W@?$time_get@DV?$istreambuf_iterator@DU?$char_traits@D@std@@@std@@@std@@IAEX_WABV_Locinfo@1@@Z ; std::time_get<char,std::istreambuf_iterator<char,std::char_traits<char> > >::_Getvals<wchar_t>
PUBLIC	??$_Getvals@_W@?$time_get@_WV?$istreambuf_iterator@_WU?$char_traits@_W@std@@@std@@@std@@IAEX_WABV_Locinfo@1@@Z ; std::time_get<wchar_t,std::istreambuf_iterator<wchar_t,std::char_traits<wchar_t> > >::_Getvals<wchar_t>
PUBLIC	__JustMyCode_Default
PUBLIC	??_C@_0GJ@OJPIAPGI@C?3?2Program?5Files?5?$CIx86?$CJ?2Microsof@ ; `string'
PUBLIC	?__LINE__Var@?0??_Maklocwcs@std@@YAPA_WPB_W@Z@4JA ; `std::_Maklocwcs'::`1'::__LINE__Var
PUBLIC	??_C@_0GJ@GKLFANMJ@C?3?2Program?5Files?5?$CIx86?$CJ?2Microsof@ ; `string'
PUBLIC	??_C@_0N@LPFKKEBD@?3AM?3am?3PM?3pm@		; `string'
PUBLIC	??_C@_1BK@MHIKGOKE@?$AA?3?$AAA?$AAM?$AA?3?$AAa?$AAm?$AA?3?$AAP?$AAM?$AA?3?$AAp?$AAm@ ; `string'
EXTRN	__imp___calloc_dbg:PROC
EXTRN	_memcpy:PROC
EXTRN	__imp__wcslen:PROC
EXTRN	_strlen:PROC
EXTRN	?_Xbad_alloc@std@@YAXXZ:PROC			; std::_Xbad_alloc
EXTRN	__Mbrtowc:PROC
EXTRN	__imp_?_Getcvt@_Locinfo@std@@QBE?AU_Cvtvec@@XZ:PROC
EXTRN	__imp_?_Getdays@_Locinfo@std@@QBEPBDXZ:PROC
EXTRN	__imp_?_Getmonths@_Locinfo@std@@QBEPBDXZ:PROC
EXTRN	__imp_?_W_Getdays@_Locinfo@std@@QBEPBGXZ:PROC
EXTRN	__imp_?_W_Getmonths@_Locinfo@std@@QBEPBGXZ:PROC
EXTRN	@_RTC_CheckStackVars@8:PROC
EXTRN	@__CheckForDebuggerJustMyCode@4:PROC
EXTRN	@__security_check_cookie@4:PROC
EXTRN	__RTC_CheckEsp:PROC
EXTRN	__RTC_InitBase:PROC
EXTRN	__RTC_Shutdown:PROC
EXTRN	___CxxFrameHandler3:PROC
EXTRN	___security_cookie:DWORD
;	COMDAT rtc$TMZ
rtc$TMZ	SEGMENT
__RTC_Shutdown.rtc$TMZ DD FLAT:__RTC_Shutdown
rtc$TMZ	ENDS
;	COMDAT rtc$IMZ
rtc$IMZ	SEGMENT
__RTC_InitBase.rtc$IMZ DD FLAT:__RTC_InitBase
rtc$IMZ	ENDS
;	COMDAT ??_C@_1BK@MHIKGOKE@?$AA?3?$AAA?$AAM?$AA?3?$AAa?$AAm?$AA?3?$AAP?$AAM?$AA?3?$AAp?$AAm@
CONST	SEGMENT
??_C@_1BK@MHIKGOKE@?$AA?3?$AAA?$AAM?$AA?3?$AAa?$AAm?$AA?3?$AAP?$AAM?$AA?3?$AAp?$AAm@ DB ':'
	DB	00H, 'A', 00H, 'M', 00H, ':', 00H, 'a', 00H, 'm', 00H, ':', 00H
	DB	'P', 00H, 'M', 00H, ':', 00H, 'p', 00H, 'm', 00H, 00H, 00H ; `string'
CONST	ENDS
;	COMDAT ??_C@_0N@LPFKKEBD@?3AM?3am?3PM?3pm@
CONST	SEGMENT
??_C@_0N@LPFKKEBD@?3AM?3am?3PM?3pm@ DB ':AM:am:PM:pm', 00H ; `string'
CONST	ENDS
;	COMDAT ??_C@_0GJ@GKLFANMJ@C?3?2Program?5Files?5?$CIx86?$CJ?2Microsof@
CONST	SEGMENT
??_C@_0GJ@GKLFANMJ@C?3?2Program?5Files?5?$CIx86?$CJ?2Microsof@ DB 'C:\Pro'
	DB	'gram Files (x86)\Microsoft Visual Studio\2019\Enterprise\VC\T'
	DB	'ools\MSVC\14.24.28314\include\xlocnum', 00H	; `string'
CONST	ENDS
;	COMDAT ?__LINE__Var@?0??_Maklocwcs@std@@YAPA_WPB_W@Z@4JA
_DATA	SEGMENT
?__LINE__Var@?0??_Maklocwcs@std@@YAPA_WPB_W@Z@4JA DD 059H ; `std::_Maklocwcs'::`1'::__LINE__Var
_DATA	ENDS
;	COMDAT ??_C@_0GJ@OJPIAPGI@C?3?2Program?5Files?5?$CIx86?$CJ?2Microsof@
CONST	SEGMENT
??_C@_0GJ@OJPIAPGI@C?3?2Program?5Files?5?$CIx86?$CJ?2Microsof@ DB 'C:\Pro'
	DB	'gram Files (x86)\Microsoft Visual Studio\2019\Enterprise\VC\T'
	DB	'ools\MSVC\14.24.28314\include\xlocale', 00H	; `string'
CONST	ENDS
;	COMDAT xdata$x
xdata$x	SEGMENT
__ehfuncinfo$?__empty_global_delete@@YAXPAXIW4align_val_t@std@@@Z DD 019930522H
	DD	00H
	DD	00H
	DD	2 DUP(00H)
	DD	2 DUP(00H)
	DD	00H
	DD	05H
xdata$x	ENDS
;	COMDAT xdata$x
xdata$x	SEGMENT
__ehfuncinfo$?__empty_global_delete@@YAXPAXW4align_val_t@std@@@Z DD 019930522H
	DD	00H
	DD	00H
	DD	2 DUP(00H)
	DD	2 DUP(00H)
	DD	00H
	DD	05H
xdata$x	ENDS
;	COMDAT xdata$x
xdata$x	SEGMENT
__ehfuncinfo$?__empty_global_delete@@YAXPAXI@Z DD 019930522H
	DD	00H
	DD	00H
	DD	2 DUP(00H)
	DD	2 DUP(00H)
	DD	00H
	DD	05H
xdata$x	ENDS
;	COMDAT xdata$x
xdata$x	SEGMENT
__ehfuncinfo$?__empty_global_delete@@YAXPAX@Z DD 019930522H
	DD	00H
	DD	00H
	DD	2 DUP(00H)
	DD	2 DUP(00H)
	DD	00H
	DD	05H
xdata$x	ENDS
; Function compile flags: /Odt
;	COMDAT __JustMyCode_Default
_TEXT	SEGMENT
__JustMyCode_Default PROC				; COMDAT
	push	ebp
	mov	ebp, esp
	pop	ebp
	ret	0
__JustMyCode_Default ENDP
_TEXT	ENDS
; Function compile flags: /Odtp /RTCsu /ZI
;	COMDAT ??$_Getvals@_W@?$time_get@_WV?$istreambuf_iterator@_WU?$char_traits@_W@std@@@std@@@std@@IAEX_WABV_Locinfo@1@@Z
_TEXT	SEGMENT
$T1 = -252						; size = 44
_this$ = -8						; size = 4
___formal$ = 8						; size = 2
__Lobj$ = 12						; size = 4
??$_Getvals@_W@?$time_get@_WV?$istreambuf_iterator@_WU?$char_traits@_W@std@@@std@@@std@@IAEX_WABV_Locinfo@1@@Z PROC ; std::time_get<wchar_t,std::istreambuf_iterator<wchar_t,std::char_traits<wchar_t> > >::_Getvals<wchar_t>, COMDAT
; _this$ = ecx
; File C:\Program Files (x86)\Microsoft Visual Studio\2019\Enterprise\VC\Tools\MSVC\14.24.28314\include\xloctime
; Line 175
	push	ebp
	mov	ebp, esp
	sub	esp, 256				; 00000100H
	push	ebx
	push	esi
	push	edi
	push	ecx
	lea	edi, DWORD PTR [ebp-256]
	mov	ecx, 64					; 00000040H
	mov	eax, -858993460				; ccccccccH
	rep stosd
	pop	ecx
	mov	DWORD PTR _this$[ebp], ecx
	mov	ecx, OFFSET __FB0E47D8_xloctime
	call	@__CheckForDebuggerJustMyCode@4
; Line 176
	mov	esi, esp
	lea	eax, DWORD PTR $T1[ebp]
	push	eax
	mov	ecx, DWORD PTR __Lobj$[ebp]
	call	DWORD PTR __imp_?_Getcvt@_Locinfo@std@@QBE?AU_Cvtvec@@XZ
	cmp	esi, esp
	call	__RTC_CheckEsp
	mov	edi, DWORD PTR _this$[ebp]
	add	edi, 24					; 00000018H
	mov	ecx, 11					; 0000000bH
	mov	esi, eax
	rep movsd
; Line 178
	mov	eax, 1
	test	eax, eax
	je	SHORT $LN2@Getvals
; Line 179
	mov	esi, esp
	mov	ecx, DWORD PTR __Lobj$[ebp]
	call	DWORD PTR __imp_?_W_Getdays@_Locinfo@std@@QBEPBGXZ
	cmp	esi, esp
	call	__RTC_CheckEsp
	push	eax
	call	?_Maklocwcs@std@@YAPA_WPB_W@Z		; std::_Maklocwcs
	add	esp, 4
	mov	ecx, DWORD PTR _this$[ebp]
	mov	DWORD PTR [ecx+8], eax
; Line 180
	mov	esi, esp
	mov	ecx, DWORD PTR __Lobj$[ebp]
	call	DWORD PTR __imp_?_W_Getmonths@_Locinfo@std@@QBEPBGXZ
	cmp	esi, esp
	call	__RTC_CheckEsp
	push	eax
	call	?_Maklocwcs@std@@YAPA_WPB_W@Z		; std::_Maklocwcs
	add	esp, 4
	mov	ecx, DWORD PTR _this$[ebp]
	mov	DWORD PTR [ecx+12], eax
; Line 182
	push	OFFSET ??_C@_1BK@MHIKGOKE@?$AA?3?$AAA?$AAM?$AA?3?$AAa?$AAm?$AA?3?$AAP?$AAM?$AA?3?$AAp?$AAm@
	call	?_Maklocwcs@std@@YAPA_WPB_W@Z		; std::_Maklocwcs
	add	esp, 4
	mov	ecx, DWORD PTR _this$[ebp]
	mov	DWORD PTR [ecx+16], eax
; Line 183
	jmp	SHORT $LN1@Getvals
$LN2@Getvals:
; Line 184
	mov	eax, DWORD PTR _this$[ebp]
	add	eax, 24					; 00000018H
	push	eax
	push	0
	mov	esi, esp
	mov	ecx, DWORD PTR __Lobj$[ebp]
	call	DWORD PTR __imp_?_Getdays@_Locinfo@std@@QBEPBDXZ
	cmp	esi, esp
	call	__RTC_CheckEsp
	push	eax
	call	??$_Maklocstr@_W@std@@YAPA_WPBDPA_WABU_Cvtvec@@@Z ; std::_Maklocstr<wchar_t>
	add	esp, 12					; 0000000cH
	mov	ecx, DWORD PTR _this$[ebp]
	mov	DWORD PTR [ecx+8], eax
; Line 185
	mov	eax, DWORD PTR _this$[ebp]
	add	eax, 24					; 00000018H
	push	eax
	push	0
	mov	esi, esp
	mov	ecx, DWORD PTR __Lobj$[ebp]
	call	DWORD PTR __imp_?_Getmonths@_Locinfo@std@@QBEPBDXZ
	cmp	esi, esp
	call	__RTC_CheckEsp
	push	eax
	call	??$_Maklocstr@_W@std@@YAPA_WPBDPA_WABU_Cvtvec@@@Z ; std::_Maklocstr<wchar_t>
	add	esp, 12					; 0000000cH
	mov	ecx, DWORD PTR _this$[ebp]
	mov	DWORD PTR [ecx+12], eax
; Line 186
	mov	eax, DWORD PTR _this$[ebp]
	add	eax, 24					; 00000018H
	push	eax
	push	0
	push	OFFSET ??_C@_0N@LPFKKEBD@?3AM?3am?3PM?3pm@
	call	??$_Maklocstr@_W@std@@YAPA_WPBDPA_WABU_Cvtvec@@@Z ; std::_Maklocstr<wchar_t>
	add	esp, 12					; 0000000cH
	mov	ecx, DWORD PTR _this$[ebp]
	mov	DWORD PTR [ecx+16], eax
$LN1@Getvals:
; Line 188
	pop	edi
	pop	esi
	pop	ebx
	add	esp, 256				; 00000100H
	cmp	ebp, esp
	call	__RTC_CheckEsp
	mov	esp, ebp
	pop	ebp
	ret	8
??$_Getvals@_W@?$time_get@_WV?$istreambuf_iterator@_WU?$char_traits@_W@std@@@std@@@std@@IAEX_WABV_Locinfo@1@@Z ENDP ; std::time_get<wchar_t,std::istreambuf_iterator<wchar_t,std::char_traits<wchar_t> > >::_Getvals<wchar_t>
_TEXT	ENDS
; Function compile flags: /Odtp /RTCsu /ZI
;	COMDAT ??$_Getvals@_W@?$time_get@DV?$istreambuf_iterator@DU?$char_traits@D@std@@@std@@@std@@IAEX_WABV_Locinfo@1@@Z
_TEXT	SEGMENT
$T1 = -252						; size = 44
_this$ = -8						; size = 4
___formal$ = 8						; size = 2
__Lobj$ = 12						; size = 4
??$_Getvals@_W@?$time_get@DV?$istreambuf_iterator@DU?$char_traits@D@std@@@std@@@std@@IAEX_WABV_Locinfo@1@@Z PROC ; std::time_get<char,std::istreambuf_iterator<char,std::char_traits<char> > >::_Getvals<wchar_t>, COMDAT
; _this$ = ecx
; File C:\Program Files (x86)\Microsoft Visual Studio\2019\Enterprise\VC\Tools\MSVC\14.24.28314\include\xloctime
; Line 175
	push	ebp
	mov	ebp, esp
	sub	esp, 256				; 00000100H
	push	ebx
	push	esi
	push	edi
	push	ecx
	lea	edi, DWORD PTR [ebp-256]
	mov	ecx, 64					; 00000040H
	mov	eax, -858993460				; ccccccccH
	rep stosd
	pop	ecx
	mov	DWORD PTR _this$[ebp], ecx
	mov	ecx, OFFSET __FB0E47D8_xloctime
	call	@__CheckForDebuggerJustMyCode@4
; Line 176
	mov	esi, esp
	lea	eax, DWORD PTR $T1[ebp]
	push	eax
	mov	ecx, DWORD PTR __Lobj$[ebp]
	call	DWORD PTR __imp_?_Getcvt@_Locinfo@std@@QBE?AU_Cvtvec@@XZ
	cmp	esi, esp
	call	__RTC_CheckEsp
	mov	edi, DWORD PTR _this$[ebp]
	add	edi, 24					; 00000018H
	mov	ecx, 11					; 0000000bH
	mov	esi, eax
	rep movsd
; Line 178
	mov	eax, 1
	test	eax, eax
	je	SHORT $LN2@Getvals
; Line 179
	mov	esi, esp
	mov	ecx, DWORD PTR __Lobj$[ebp]
	call	DWORD PTR __imp_?_W_Getdays@_Locinfo@std@@QBEPBGXZ
	cmp	esi, esp
	call	__RTC_CheckEsp
	push	eax
	call	?_Maklocwcs@std@@YAPA_WPB_W@Z		; std::_Maklocwcs
	add	esp, 4
	mov	ecx, DWORD PTR _this$[ebp]
	mov	DWORD PTR [ecx+8], eax
; Line 180
	mov	esi, esp
	mov	ecx, DWORD PTR __Lobj$[ebp]
	call	DWORD PTR __imp_?_W_Getmonths@_Locinfo@std@@QBEPBGXZ
	cmp	esi, esp
	call	__RTC_CheckEsp
	push	eax
	call	?_Maklocwcs@std@@YAPA_WPB_W@Z		; std::_Maklocwcs
	add	esp, 4
	mov	ecx, DWORD PTR _this$[ebp]
	mov	DWORD PTR [ecx+12], eax
; Line 182
	push	OFFSET ??_C@_1BK@MHIKGOKE@?$AA?3?$AAA?$AAM?$AA?3?$AAa?$AAm?$AA?3?$AAP?$AAM?$AA?3?$AAp?$AAm@
	call	?_Maklocwcs@std@@YAPA_WPB_W@Z		; std::_Maklocwcs
	add	esp, 4
	mov	ecx, DWORD PTR _this$[ebp]
	mov	DWORD PTR [ecx+16], eax
; Line 183
	jmp	SHORT $LN1@Getvals
$LN2@Getvals:
; Line 184
	mov	eax, DWORD PTR _this$[ebp]
	add	eax, 24					; 00000018H
	push	eax
	push	0
	mov	esi, esp
	mov	ecx, DWORD PTR __Lobj$[ebp]
	call	DWORD PTR __imp_?_Getdays@_Locinfo@std@@QBEPBDXZ
	cmp	esi, esp
	call	__RTC_CheckEsp
	push	eax
	call	??$_Maklocstr@D@std@@YAPADPBDPADABU_Cvtvec@@@Z ; std::_Maklocstr<char>
	add	esp, 12					; 0000000cH
	mov	ecx, DWORD PTR _this$[ebp]
	mov	DWORD PTR [ecx+8], eax
; Line 185
	mov	eax, DWORD PTR _this$[ebp]
	add	eax, 24					; 00000018H
	push	eax
	push	0
	mov	esi, esp
	mov	ecx, DWORD PTR __Lobj$[ebp]
	call	DWORD PTR __imp_?_Getmonths@_Locinfo@std@@QBEPBDXZ
	cmp	esi, esp
	call	__RTC_CheckEsp
	push	eax
	call	??$_Maklocstr@D@std@@YAPADPBDPADABU_Cvtvec@@@Z ; std::_Maklocstr<char>
	add	esp, 12					; 0000000cH
	mov	ecx, DWORD PTR _this$[ebp]
	mov	DWORD PTR [ecx+12], eax
; Line 186
	mov	eax, DWORD PTR _this$[ebp]
	add	eax, 24					; 00000018H
	push	eax
	push	0
	push	OFFSET ??_C@_0N@LPFKKEBD@?3AM?3am?3PM?3pm@
	call	??$_Maklocstr@D@std@@YAPADPBDPADABU_Cvtvec@@@Z ; std::_Maklocstr<char>
	add	esp, 12					; 0000000cH
	mov	ecx, DWORD PTR _this$[ebp]
	mov	DWORD PTR [ecx+16], eax
$LN1@Getvals:
; Line 188
	pop	edi
	pop	esi
	pop	ebx
	add	esp, 256				; 00000100H
	cmp	ebp, esp
	call	__RTC_CheckEsp
	mov	esp, ebp
	pop	ebp
	ret	8
??$_Getvals@_W@?$time_get@DV?$istreambuf_iterator@DU?$char_traits@D@std@@@std@@@std@@IAEX_WABV_Locinfo@1@@Z ENDP ; std::time_get<char,std::istreambuf_iterator<char,std::char_traits<char> > >::_Getvals<wchar_t>
_TEXT	ENDS
; Function compile flags: /Odtp /RTCsu /ZI
;	COMDAT ??$_Maklocstr@D@std@@YAPADPBDPADABU_Cvtvec@@@Z
_TEXT	SEGMENT
__Ptrnext$1 = -32					; size = 4
__Ptrdest$ = -20					; size = 4
__Count$ = -8						; size = 4
__Ptr$ = 8						; size = 4
___formal$ = 12						; size = 4
___formal$ = 16						; size = 4
??$_Maklocstr@D@std@@YAPADPBDPADABU_Cvtvec@@@Z PROC	; std::_Maklocstr<char>, COMDAT
; File C:\Program Files (x86)\Microsoft Visual Studio\2019\Enterprise\VC\Tools\MSVC\14.24.28314\include\xlocale
; Line 564
	push	ebp
	mov	ebp, esp
	sub	esp, 228				; 000000e4H
	push	ebx
	push	esi
	push	edi
	lea	edi, DWORD PTR [ebp-228]
	mov	ecx, 57					; 00000039H
	mov	eax, -858993460				; ccccccccH
	rep stosd
	mov	ecx, OFFSET __B34AA0D6_xlocale
	call	@__CheckForDebuggerJustMyCode@4
; Line 566
	mov	eax, DWORD PTR __Ptr$[ebp]
	push	eax
	call	_strlen
	add	esp, 4
	add	eax, 1
	mov	DWORD PTR __Count$[ebp], eax
; Line 568
	mov	esi, esp
	push	568					; 00000238H
	push	OFFSET ??_C@_0GJ@OJPIAPGI@C?3?2Program?5Files?5?$CIx86?$CJ?2Microsof@
	push	2
	push	1
	mov	eax, DWORD PTR __Count$[ebp]
	push	eax
	call	DWORD PTR __imp___calloc_dbg
	add	esp, 20					; 00000014H
	cmp	esi, esp
	call	__RTC_CheckEsp
	mov	DWORD PTR __Ptrdest$[ebp], eax
; Line 570
	cmp	DWORD PTR __Ptrdest$[ebp], 0
	jne	SHORT $LN5@Maklocstr
; Line 571
	call	?_Xbad_alloc@std@@YAXXZ			; std::_Xbad_alloc
$LN5@Maklocstr:
; Line 574
	mov	eax, DWORD PTR __Ptrdest$[ebp]
	mov	DWORD PTR __Ptrnext$1[ebp], eax
	jmp	SHORT $LN4@Maklocstr
$LN2@Maklocstr:
	mov	eax, DWORD PTR __Count$[ebp]
	sub	eax, 1
	mov	DWORD PTR __Count$[ebp], eax
	mov	ecx, DWORD PTR __Ptrnext$1[ebp]
	add	ecx, 1
	mov	DWORD PTR __Ptrnext$1[ebp], ecx
	mov	edx, DWORD PTR __Ptr$[ebp]
	add	edx, 1
	mov	DWORD PTR __Ptr$[ebp], edx
$LN4@Maklocstr:
	cmp	DWORD PTR __Count$[ebp], 0
	jbe	SHORT $LN3@Maklocstr
; Line 575
	mov	eax, DWORD PTR __Ptrnext$1[ebp]
	mov	ecx, DWORD PTR __Ptr$[ebp]
	mov	dl, BYTE PTR [ecx]
	mov	BYTE PTR [eax], dl
; Line 576
	jmp	SHORT $LN2@Maklocstr
$LN3@Maklocstr:
; Line 578
	mov	eax, DWORD PTR __Ptrdest$[ebp]
$LN6@Maklocstr:
; Line 579
	pop	edi
	pop	esi
	pop	ebx
	add	esp, 228				; 000000e4H
	cmp	ebp, esp
	call	__RTC_CheckEsp
	mov	esp, ebp
	pop	ebp
	ret	0
??$_Maklocstr@D@std@@YAPADPBDPADABU_Cvtvec@@@Z ENDP	; std::_Maklocstr<char>
_TEXT	ENDS
; Function compile flags: /Odtp /RTCsu /ZI
;	COMDAT ?_Maklocwcs@std@@YAPA_WPB_W@Z
_TEXT	SEGMENT
__Ptrdest$ = -20					; size = 4
__Count$ = -8						; size = 4
__Ptr$ = 8						; size = 4
?_Maklocwcs@std@@YAPA_WPB_W@Z PROC			; std::_Maklocwcs, COMDAT
; File C:\Program Files (x86)\Microsoft Visual Studio\2019\Enterprise\VC\Tools\MSVC\14.24.28314\include\xlocnum
; Line 89
	push	ebp
	mov	ebp, esp
	sub	esp, 216				; 000000d8H
	push	ebx
	push	esi
	push	edi
	lea	edi, DWORD PTR [ebp-216]
	mov	ecx, 54					; 00000036H
	mov	eax, -858993460				; ccccccccH
	rep stosd
	mov	ecx, OFFSET __2DCDC6C1_xlocnum
	call	@__CheckForDebuggerJustMyCode@4
; Line 90
	mov	esi, esp
	mov	eax, DWORD PTR __Ptr$[ebp]
	push	eax
	call	DWORD PTR __imp__wcslen
	add	esp, 4
	cmp	esi, esp
	call	__RTC_CheckEsp
	add	eax, 1
	mov	DWORD PTR __Count$[ebp], eax
; Line 92
	mov	eax, DWORD PTR ?__LINE__Var@?0??_Maklocwcs@std@@YAPA_WPB_W@Z@4JA
	add	eax, 3
	mov	esi, esp
	push	eax
	push	OFFSET ??_C@_0GJ@GKLFANMJ@C?3?2Program?5Files?5?$CIx86?$CJ?2Microsof@
	push	2
	push	2
	mov	ecx, DWORD PTR __Count$[ebp]
	push	ecx
	call	DWORD PTR __imp___calloc_dbg
	add	esp, 20					; 00000014H
	cmp	esi, esp
	call	__RTC_CheckEsp
	mov	DWORD PTR __Ptrdest$[ebp], eax
; Line 94
	cmp	DWORD PTR __Ptrdest$[ebp], 0
	jne	SHORT $LN2@Maklocwcs
; Line 95
	call	?_Xbad_alloc@std@@YAXXZ			; std::_Xbad_alloc
$LN2@Maklocwcs:
; Line 98
	mov	eax, DWORD PTR __Count$[ebp]
	push	eax
	mov	ecx, DWORD PTR __Ptr$[ebp]
	push	ecx
	mov	edx, DWORD PTR __Ptrdest$[ebp]
	push	edx
	call	_wmemcpy
	add	esp, 12					; 0000000cH
; Line 99
	mov	eax, DWORD PTR __Ptrdest$[ebp]
$LN3@Maklocwcs:
; Line 100
	pop	edi
	pop	esi
	pop	ebx
	add	esp, 216				; 000000d8H
	cmp	ebp, esp
	call	__RTC_CheckEsp
	mov	esp, ebp
	pop	ebp
	ret	0
?_Maklocwcs@std@@YAPA_WPB_W@Z ENDP			; std::_Maklocwcs
_TEXT	ENDS
; Function compile flags: /Odtp /RTCsu /ZI
;	COMDAT ??$_Maklocstr@_W@std@@YAPA_WPBDPA_WABU_Cvtvec@@@Z
_TEXT	SEGMENT
__Mbst2$ = -128						; size = 8
__Ptrnext$ = -112					; size = 4
__Ptrdest$ = -100					; size = 4
__Mbst1$ = -88						; size = 8
__Wc$ = -72						; size = 2
__Bytes$ = -60						; size = 4
__Ptr1$ = -48						; size = 4
__Wchars$ = -36						; size = 4
__Count1$ = -24						; size = 4
__Count$ = -12						; size = 4
__$ArrayPad$ = -4					; size = 4
__Ptr$ = 8						; size = 4
___formal$ = 12						; size = 4
__Cvt$ = 16						; size = 4
??$_Maklocstr@_W@std@@YAPA_WPBDPA_WABU_Cvtvec@@@Z PROC	; std::_Maklocstr<wchar_t>, COMDAT
; File C:\Program Files (x86)\Microsoft Visual Studio\2019\Enterprise\VC\Tools\MSVC\14.24.28314\include\xlocale
; Line 582
	push	ebp
	mov	ebp, esp
	sub	esp, 324				; 00000144H
	push	ebx
	push	esi
	push	edi
	lea	edi, DWORD PTR [ebp-324]
	mov	ecx, 81					; 00000051H
	mov	eax, -858993460				; ccccccccH
	rep stosd
	mov	eax, DWORD PTR ___security_cookie
	xor	eax, ebp
	mov	DWORD PTR __$ArrayPad$[ebp], eax
	mov	ecx, OFFSET __B34AA0D6_xlocale
	call	@__CheckForDebuggerJustMyCode@4
; Line 590
	xor	eax, eax
	mov	DWORD PTR __Mbst1$[ebp], eax
	mov	DWORD PTR __Mbst1$[ebp+4], eax
; Line 592
	mov	eax, DWORD PTR __Ptr$[ebp]
	push	eax
	call	_strlen
	add	esp, 4
	add	eax, 1
	mov	DWORD PTR __Count1$[ebp], eax
; Line 593
	mov	eax, DWORD PTR __Count1$[ebp]
	mov	DWORD PTR __Count$[ebp], eax
	mov	DWORD PTR __Wchars$[ebp], 0
	mov	ecx, DWORD PTR __Ptr$[ebp]
	mov	DWORD PTR __Ptr1$[ebp], ecx
	jmp	SHORT $LN4@Maklocstr
$LN2@Maklocstr:
	mov	eax, DWORD PTR __Count$[ebp]
	sub	eax, DWORD PTR __Bytes$[ebp]
	mov	DWORD PTR __Count$[ebp], eax
	mov	ecx, DWORD PTR __Ptr1$[ebp]
	add	ecx, DWORD PTR __Bytes$[ebp]
	mov	DWORD PTR __Ptr1$[ebp], ecx
	mov	edx, DWORD PTR __Wchars$[ebp]
	add	edx, 1
	mov	DWORD PTR __Wchars$[ebp], edx
$LN4@Maklocstr:
	cmp	DWORD PTR __Count$[ebp], 0
	jbe	SHORT $LN3@Maklocstr
; Line 594
	mov	eax, DWORD PTR __Cvt$[ebp]
	push	eax
	lea	ecx, DWORD PTR __Mbst1$[ebp]
	push	ecx
	mov	edx, DWORD PTR __Count$[ebp]
	push	edx
	mov	eax, DWORD PTR __Ptr1$[ebp]
	push	eax
	lea	ecx, DWORD PTR __Wc$[ebp]
	push	ecx
	call	__Mbrtowc
	add	esp, 20					; 00000014H
	mov	DWORD PTR __Bytes$[ebp], eax
	cmp	DWORD PTR __Bytes$[ebp], 0
	jg	SHORT $LN8@Maklocstr
; Line 595
	jmp	SHORT $LN3@Maklocstr
$LN8@Maklocstr:
; Line 597
	jmp	SHORT $LN2@Maklocstr
$LN3@Maklocstr:
; Line 599
	mov	eax, DWORD PTR __Wchars$[ebp]
	add	eax, 1
	mov	DWORD PTR __Wchars$[ebp], eax
; Line 601
	mov	esi, esp
	push	601					; 00000259H
	push	OFFSET ??_C@_0GJ@OJPIAPGI@C?3?2Program?5Files?5?$CIx86?$CJ?2Microsof@
	push	2
	push	2
	mov	eax, DWORD PTR __Wchars$[ebp]
	push	eax
	call	DWORD PTR __imp___calloc_dbg
	add	esp, 20					; 00000014H
	cmp	esi, esp
	call	__RTC_CheckEsp
	mov	DWORD PTR __Ptrdest$[ebp], eax
; Line 603
	cmp	DWORD PTR __Ptrdest$[ebp], 0
	jne	SHORT $LN9@Maklocstr
; Line 604
	call	?_Xbad_alloc@std@@YAXXZ			; std::_Xbad_alloc
$LN9@Maklocstr:
; Line 607
	mov	eax, DWORD PTR __Ptrdest$[ebp]
	mov	DWORD PTR __Ptrnext$[ebp], eax
; Line 608
	xor	eax, eax
	mov	DWORD PTR __Mbst2$[ebp], eax
	mov	DWORD PTR __Mbst2$[ebp+4], eax
; Line 610
	jmp	SHORT $LN7@Maklocstr
$LN5@Maklocstr:
	mov	eax, DWORD PTR __Count$[ebp]
	sub	eax, DWORD PTR __Bytes$[ebp]
	mov	DWORD PTR __Count$[ebp], eax
	mov	ecx, DWORD PTR __Ptr$[ebp]
	add	ecx, DWORD PTR __Bytes$[ebp]
	mov	DWORD PTR __Ptr$[ebp], ecx
	mov	edx, DWORD PTR __Wchars$[ebp]
	sub	edx, 1
	mov	DWORD PTR __Wchars$[ebp], edx
	mov	eax, DWORD PTR __Ptrnext$[ebp]
	add	eax, 2
	mov	DWORD PTR __Ptrnext$[ebp], eax
$LN7@Maklocstr:
	cmp	DWORD PTR __Wchars$[ebp], 0
	jbe	SHORT $LN6@Maklocstr
; Line 611
	mov	eax, DWORD PTR __Cvt$[ebp]
	push	eax
	lea	ecx, DWORD PTR __Mbst2$[ebp]
	push	ecx
	mov	edx, DWORD PTR __Count1$[ebp]
	push	edx
	mov	eax, DWORD PTR __Ptr$[ebp]
	push	eax
	mov	ecx, DWORD PTR __Ptrnext$[ebp]
	push	ecx
	call	__Mbrtowc
	add	esp, 20					; 00000014H
	mov	DWORD PTR __Bytes$[ebp], eax
	cmp	DWORD PTR __Bytes$[ebp], 0
	jg	SHORT $LN10@Maklocstr
; Line 612
	jmp	SHORT $LN6@Maklocstr
$LN10@Maklocstr:
; Line 614
	jmp	SHORT $LN5@Maklocstr
$LN6@Maklocstr:
; Line 616
	xor	eax, eax
	mov	ecx, DWORD PTR __Ptrnext$[ebp]
	mov	WORD PTR [ecx], ax
; Line 618
	mov	eax, DWORD PTR __Ptrdest$[ebp]
$LN11@Maklocstr:
; Line 619
	push	edx
	mov	ecx, ebp
	push	eax
	lea	edx, DWORD PTR $LN16@Maklocstr
	call	@_RTC_CheckStackVars@8
	pop	eax
	pop	edx
	pop	edi
	pop	esi
	pop	ebx
	mov	ecx, DWORD PTR __$ArrayPad$[ebp]
	xor	ecx, ebp
	call	@__security_check_cookie@4
	add	esp, 324				; 00000144H
	cmp	ebp, esp
	call	__RTC_CheckEsp
	mov	esp, ebp
	pop	ebp
	ret	0
	npad	1
$LN16@Maklocstr:
	DD	3
	DD	$LN15@Maklocstr
$LN15@Maklocstr:
	DD	-72					; ffffffb8H
	DD	2
	DD	$LN12@Maklocstr
	DD	-88					; ffffffa8H
	DD	8
	DD	$LN13@Maklocstr
	DD	-128					; ffffff80H
	DD	8
	DD	$LN14@Maklocstr
$LN14@Maklocstr:
	DB	95					; 0000005fH
	DB	77					; 0000004dH
	DB	98					; 00000062H
	DB	115					; 00000073H
	DB	116					; 00000074H
	DB	50					; 00000032H
	DB	0
$LN13@Maklocstr:
	DB	95					; 0000005fH
	DB	77					; 0000004dH
	DB	98					; 00000062H
	DB	115					; 00000073H
	DB	116					; 00000074H
	DB	49					; 00000031H
	DB	0
$LN12@Maklocstr:
	DB	95					; 0000005fH
	DB	87					; 00000057H
	DB	99					; 00000063H
	DB	0
??$_Maklocstr@_W@std@@YAPA_WPBDPA_WABU_Cvtvec@@@Z ENDP	; std::_Maklocstr<wchar_t>
_TEXT	ENDS
; Function compile flags: /Odtp /RTCsu /ZI
;	COMDAT _wmemcpy
_TEXT	SEGMENT
__S1$ = 8						; size = 4
__S2$ = 12						; size = 4
__N$ = 16						; size = 4
_wmemcpy PROC						; COMDAT
; File C:\Program Files (x86)\Windows Kits\10\Include\10.0.18362.0\ucrt\wchar.h
; Line 230
	push	ebp
	mov	ebp, esp
	sub	esp, 192				; 000000c0H
	push	ebx
	push	esi
	push	edi
	lea	edi, DWORD PTR [ebp-192]
	mov	ecx, 48					; 00000030H
	mov	eax, -858993460				; ccccccccH
	rep stosd
	mov	ecx, OFFSET __534C724A_wchar@h
	call	@__CheckForDebuggerJustMyCode@4
; Line 233
	mov	eax, DWORD PTR __N$[ebp]
	shl	eax, 1
	push	eax
	mov	ecx, DWORD PTR __S2$[ebp]
	push	ecx
	mov	edx, DWORD PTR __S1$[ebp]
	push	edx
	call	_memcpy
	add	esp, 12					; 0000000cH
; Line 235
	pop	edi
	pop	esi
	pop	ebx
	add	esp, 192				; 000000c0H
	cmp	ebp, esp
	call	__RTC_CheckEsp
	mov	esp, ebp
	pop	ebp
	ret	0
_wmemcpy ENDP
_TEXT	ENDS
; Function compile flags: /Odtp /RTCsu /ZI
;	COMDAT ?__empty_global_delete@@YAXPAXIW4align_val_t@std@@@Z
_TEXT	SEGMENT
__$EHRec$ = -12						; size = 12
___formal$ = 8						; size = 4
___formal$ = 12						; size = 4
___formal$ = 16						; size = 4
?__empty_global_delete@@YAXPAXIW4align_val_t@std@@@Z PROC ; __empty_global_delete, COMDAT
; File C:\Users\Ce\Documents\Programming\C++\ising\ising\pch.cpp
; Line 2
	push	ebp
	mov	ebp, esp
	push	-1
	push	__ehhandler$?__empty_global_delete@@YAXPAXIW4align_val_t@std@@@Z
	mov	eax, DWORD PTR fs:0
	push	eax
	sub	esp, 192				; 000000c0H
	push	ebx
	push	esi
	push	edi
	lea	edi, DWORD PTR [ebp-204]
	mov	ecx, 48					; 00000030H
	mov	eax, -858993460				; ccccccccH
	rep stosd
	mov	eax, DWORD PTR ___security_cookie
	xor	eax, ebp
	push	eax
	lea	eax, DWORD PTR __$EHRec$[ebp]
	mov	DWORD PTR fs:0, eax
	mov	ecx, OFFSET __850D9C4F_pch@cpp
	call	@__CheckForDebuggerJustMyCode@4
	mov	ecx, DWORD PTR __$EHRec$[ebp]
	mov	DWORD PTR fs:0, ecx
	pop	ecx
	pop	edi
	pop	esi
	pop	ebx
	add	esp, 204				; 000000ccH
	cmp	ebp, esp
	call	__RTC_CheckEsp
	mov	esp, ebp
	pop	ebp
	ret	0
_TEXT	ENDS
;	COMDAT text$x
text$x	SEGMENT
__ehhandler$?__empty_global_delete@@YAXPAXIW4align_val_t@std@@@Z:
	mov	edx, DWORD PTR [esp+8]
	lea	eax, DWORD PTR [edx+12]
	mov	ecx, DWORD PTR [edx-208]
	xor	ecx, eax
	call	@__security_check_cookie@4
	mov	eax, OFFSET __ehfuncinfo$?__empty_global_delete@@YAXPAXIW4align_val_t@std@@@Z
	jmp	___CxxFrameHandler3
text$x	ENDS
?__empty_global_delete@@YAXPAXIW4align_val_t@std@@@Z ENDP ; __empty_global_delete
; Function compile flags: /Odtp /RTCsu /ZI
;	COMDAT ?__empty_global_delete@@YAXPAXW4align_val_t@std@@@Z
_TEXT	SEGMENT
__$EHRec$ = -12						; size = 12
___formal$ = 8						; size = 4
___formal$ = 12						; size = 4
?__empty_global_delete@@YAXPAXW4align_val_t@std@@@Z PROC ; __empty_global_delete, COMDAT
; File C:\Users\Ce\Documents\Programming\C++\ising\ising\pch.cpp
; Line 2
	push	ebp
	mov	ebp, esp
	push	-1
	push	__ehhandler$?__empty_global_delete@@YAXPAXW4align_val_t@std@@@Z
	mov	eax, DWORD PTR fs:0
	push	eax
	sub	esp, 192				; 000000c0H
	push	ebx
	push	esi
	push	edi
	lea	edi, DWORD PTR [ebp-204]
	mov	ecx, 48					; 00000030H
	mov	eax, -858993460				; ccccccccH
	rep stosd
	mov	eax, DWORD PTR ___security_cookie
	xor	eax, ebp
	push	eax
	lea	eax, DWORD PTR __$EHRec$[ebp]
	mov	DWORD PTR fs:0, eax
	mov	ecx, OFFSET __850D9C4F_pch@cpp
	call	@__CheckForDebuggerJustMyCode@4
	mov	ecx, DWORD PTR __$EHRec$[ebp]
	mov	DWORD PTR fs:0, ecx
	pop	ecx
	pop	edi
	pop	esi
	pop	ebx
	add	esp, 204				; 000000ccH
	cmp	ebp, esp
	call	__RTC_CheckEsp
	mov	esp, ebp
	pop	ebp
	ret	0
_TEXT	ENDS
;	COMDAT text$x
text$x	SEGMENT
__ehhandler$?__empty_global_delete@@YAXPAXW4align_val_t@std@@@Z:
	mov	edx, DWORD PTR [esp+8]
	lea	eax, DWORD PTR [edx+12]
	mov	ecx, DWORD PTR [edx-208]
	xor	ecx, eax
	call	@__security_check_cookie@4
	mov	eax, OFFSET __ehfuncinfo$?__empty_global_delete@@YAXPAXW4align_val_t@std@@@Z
	jmp	___CxxFrameHandler3
text$x	ENDS
?__empty_global_delete@@YAXPAXW4align_val_t@std@@@Z ENDP ; __empty_global_delete
; Function compile flags: /Odtp /RTCsu /ZI
;	COMDAT ?__empty_global_delete@@YAXPAXI@Z
_TEXT	SEGMENT
__$EHRec$ = -12						; size = 12
___formal$ = 8						; size = 4
___formal$ = 12						; size = 4
?__empty_global_delete@@YAXPAXI@Z PROC			; __empty_global_delete, COMDAT
; File C:\Users\Ce\Documents\Programming\C++\ising\ising\pch.cpp
; Line 2
	push	ebp
	mov	ebp, esp
	push	-1
	push	__ehhandler$?__empty_global_delete@@YAXPAXI@Z
	mov	eax, DWORD PTR fs:0
	push	eax
	sub	esp, 192				; 000000c0H
	push	ebx
	push	esi
	push	edi
	lea	edi, DWORD PTR [ebp-204]
	mov	ecx, 48					; 00000030H
	mov	eax, -858993460				; ccccccccH
	rep stosd
	mov	eax, DWORD PTR ___security_cookie
	xor	eax, ebp
	push	eax
	lea	eax, DWORD PTR __$EHRec$[ebp]
	mov	DWORD PTR fs:0, eax
	mov	ecx, OFFSET __850D9C4F_pch@cpp
	call	@__CheckForDebuggerJustMyCode@4
	mov	ecx, DWORD PTR __$EHRec$[ebp]
	mov	DWORD PTR fs:0, ecx
	pop	ecx
	pop	edi
	pop	esi
	pop	ebx
	add	esp, 204				; 000000ccH
	cmp	ebp, esp
	call	__RTC_CheckEsp
	mov	esp, ebp
	pop	ebp
	ret	0
_TEXT	ENDS
;	COMDAT text$x
text$x	SEGMENT
__ehhandler$?__empty_global_delete@@YAXPAXI@Z:
	mov	edx, DWORD PTR [esp+8]
	lea	eax, DWORD PTR [edx+12]
	mov	ecx, DWORD PTR [edx-208]
	xor	ecx, eax
	call	@__security_check_cookie@4
	mov	eax, OFFSET __ehfuncinfo$?__empty_global_delete@@YAXPAXI@Z
	jmp	___CxxFrameHandler3
text$x	ENDS
?__empty_global_delete@@YAXPAXI@Z ENDP			; __empty_global_delete
; Function compile flags: /Odtp /RTCsu /ZI
;	COMDAT ?__empty_global_delete@@YAXPAX@Z
_TEXT	SEGMENT
__$EHRec$ = -12						; size = 12
___formal$ = 8						; size = 4
?__empty_global_delete@@YAXPAX@Z PROC			; __empty_global_delete, COMDAT
; File C:\Users\Ce\Documents\Programming\C++\ising\ising\pch.cpp
; Line 2
	push	ebp
	mov	ebp, esp
	push	-1
	push	__ehhandler$?__empty_global_delete@@YAXPAX@Z
	mov	eax, DWORD PTR fs:0
	push	eax
	sub	esp, 192				; 000000c0H
	push	ebx
	push	esi
	push	edi
	lea	edi, DWORD PTR [ebp-204]
	mov	ecx, 48					; 00000030H
	mov	eax, -858993460				; ccccccccH
	rep stosd
	mov	eax, DWORD PTR ___security_cookie
	xor	eax, ebp
	push	eax
	lea	eax, DWORD PTR __$EHRec$[ebp]
	mov	DWORD PTR fs:0, eax
	mov	ecx, OFFSET __850D9C4F_pch@cpp
	call	@__CheckForDebuggerJustMyCode@4
	mov	ecx, DWORD PTR __$EHRec$[ebp]
	mov	DWORD PTR fs:0, ecx
	pop	ecx
	pop	edi
	pop	esi
	pop	ebx
	add	esp, 204				; 000000ccH
	cmp	ebp, esp
	call	__RTC_CheckEsp
	mov	esp, ebp
	pop	ebp
	ret	0
_TEXT	ENDS
;	COMDAT text$x
text$x	SEGMENT
__ehhandler$?__empty_global_delete@@YAXPAX@Z:
	mov	edx, DWORD PTR [esp+8]
	lea	eax, DWORD PTR [edx+12]
	mov	ecx, DWORD PTR [edx-208]
	xor	ecx, eax
	call	@__security_check_cookie@4
	mov	eax, OFFSET __ehfuncinfo$?__empty_global_delete@@YAXPAX@Z
	jmp	___CxxFrameHandler3
text$x	ENDS
?__empty_global_delete@@YAXPAX@Z ENDP			; __empty_global_delete
END
